; Function Attrs: nounwind sspstrong uwtable
define internal range(i32 0, 65536) i32 @riscv_gdb_set_vector(ptr noundef %0, ptr noundef readonly captures(none) %1, i32 noundef %2) #0 {
  %4 = tail call ptr @object_dynamic_cast_assert(ptr noundef %0, ptr noundef nonnull @.str.5, ptr noundef nonnull @.str.6, i32 noundef 56, ptr noundef nonnull @__func__.RISCV_CPU) #7
  %5 = icmp slt i32 %2, 32
  br i1 %5, label %.preheader, label %.loopexit

.preheader:                                       ; preds = %3
  %6 = getelementptr inbounds nuw i8, ptr %4, i64 16632
  %7 = load i16, ptr %6, align 8
  %8 = zext i16 %7 to i32
  %.not = icmp eq i16 %7, 0
  br i1 %.not, label %.loopexit, label %.lr.ph

.lr.ph:                                           ; preds = %.preheader
  %9 = getelementptr inbounds nuw i8, ptr %4, i64 11712
  %10 = mul i32 %2, %8
  %11 = zext i16 %7 to i64
  br label %12

12:                                               ; preds = %.lr.ph, %12
  %indvars.iv = phi i64 [ 0, %.lr.ph ], [ %indvars.iv.next, %12 ]
  %13 = getelementptr inbounds nuw i8, ptr %1, i64 %indvars.iv
  %.val = load i64, ptr %13, align 1
  %14 = trunc nuw nsw i64 %indvars.iv to i32
  %15 = add i32 %10, %14
  %16 = sdiv i32 %15, 8
  %17 = sext i32 %16 to i64
  %18 = getelementptr inbounds [512 x i64], ptr %9, i64 0, i64 %17
  store i64 %.val, ptr %18, align 8
  %indvars.iv.next = add nuw nsw i64 %indvars.iv, 8
  %19 = icmp samesign ult i64 %indvars.iv.next, %11
  br i1 %19, label %12, label %.loopexit, !llvm.loop !13

.loopexit:                                        ; preds = %12, %.preheader, %3
  %.014 = phi i32 [ 0, %3 ], [ 0, %.preheader ], [ %8, %12 ]
  ret i32 %.014
}